target datalayout = "e-m:e-p270:32:32-p271:32:32-p272:64:64-i64:64-i128:128-f80:128-n8:16:32:64-S128"
target triple = "x86_64-pc-linux-gnu"

%"struct.Luau::CodeGen::X64::OperandX64" = type { i8, %"struct.Luau::CodeGen::X64::RegisterX64", %"struct.Luau::CodeGen::X64::RegisterX64", i8, i32 }
%"struct.Luau::CodeGen::X64::RegisterX64" = type { i8 }

@_ZN4Luau7CodeGen3X64L5qwordE = internal constant %"struct.Luau::CodeGen::X64::OperandX64" { i8 1, %"struct.Luau::CodeGen::X64::RegisterX64" { i8 -128 }, %"struct.Luau::CodeGen::X64::RegisterX64" { i8 -128 }, i8 20, i32 0 }, align 4
@_ZN4Luau7CodeGen3X64L5sCodeE = internal constant %"struct.Luau::CodeGen::X64::OperandX64" { i8 1, %"struct.Luau::CodeGen::X64::RegisterX64" { i8 -128 }, %"struct.Luau::CodeGen::X64::RegisterX64" { i8 36 }, i8 20, i32 56 }, align 4
@_ZN4Luau7CodeGen3X64L4byteE = internal constant %"struct.Luau::CodeGen::X64::OperandX64" { i8 1, %"struct.Luau::CodeGen::X64::RegisterX64" { i8 -128 }, %"struct.Luau::CodeGen::X64::RegisterX64" { i8 -128 }, i8 17, i32 0 }, align 4
@_ZN4Luau7CodeGen3X64L5noregE = internal constant %"struct.Luau::CodeGen::X64::RegisterX64" { i8 -128 }, align 1

; Function Attrs: mustprogress nounwind uwtable
define linkonce_odr dso_local void @_ZN4Luau7CodeGen3X6410OperandX64C2ENS1_7SizeX64ENS1_11RegisterX64EhS4_i(ptr noundef nonnull align 4 dereferenceable(8) %0, i8 noundef zeroext %1, i8 %2, i8 noundef zeroext %3, i8 %4, i32 noundef %5) unnamed_addr #4 comdat align 2 {
  %7 = alloca %"struct.Luau::CodeGen::X64::RegisterX64", align 1
  %8 = alloca %"struct.Luau::CodeGen::X64::RegisterX64", align 1
  %9 = alloca ptr, align 8
  %10 = alloca i8, align 1
  %11 = alloca i8, align 1
  %12 = alloca i32, align 4
  %13 = getelementptr inbounds nuw %"struct.Luau::CodeGen::X64::RegisterX64", ptr %7, i32 0, i32 0
  store i8 %2, ptr %13, align 1
  %14 = getelementptr inbounds nuw %"struct.Luau::CodeGen::X64::RegisterX64", ptr %8, i32 0, i32 0
  store i8 %4, ptr %14, align 1
  store ptr %0, ptr %9, align 8, !tbaa !24
  store i8 %1, ptr %10, align 1, !tbaa !73
  store i8 %3, ptr %11, align 1, !tbaa !21
  store i32 %5, ptr %12, align 4, !tbaa !22
  %15 = load ptr, ptr %9, align 8
  %16 = getelementptr inbounds nuw %"struct.Luau::CodeGen::X64::OperandX64", ptr %15, i32 0, i32 0
  store i8 1, ptr %16, align 4, !tbaa !13
  %17 = getelementptr inbounds nuw %"struct.Luau::CodeGen::X64::OperandX64", ptr %15, i32 0, i32 1
  call void @llvm.memcpy.p0.p0.i64(ptr align 1 %17, ptr align 1 %7, i64 1, i1 false), !tbaa.struct !23
  %18 = getelementptr inbounds nuw %"struct.Luau::CodeGen::X64::OperandX64", ptr %15, i32 0, i32 2
  call void @llvm.memcpy.p0.p0.i64(ptr align 2 %18, ptr align 1 %8, i64 1, i1 false), !tbaa.struct !23
  %19 = getelementptr inbounds nuw %"struct.Luau::CodeGen::X64::OperandX64", ptr %15, i32 0, i32 3
  %20 = load i8, ptr %10, align 1, !tbaa !73
  %21 = load i8, ptr %19, align 1
  %22 = and i8 %20, 15
  %23 = and i8 %21, -16
  %24 = or i8 %23, %22
  store i8 %24, ptr %19, align 1
  %25 = getelementptr inbounds nuw %"struct.Luau::CodeGen::X64::OperandX64", ptr %15, i32 0, i32 3
  %26 = load i8, ptr %11, align 1, !tbaa !21
  %27 = load i8, ptr %25, align 1
  %28 = and i8 %26, 15
  %29 = shl i8 %28, 4
  %30 = and i8 %27, 15
  %31 = or i8 %30, %29
  store i8 %31, ptr %25, align 1
  %32 = getelementptr inbounds nuw %"struct.Luau::CodeGen::X64::OperandX64", ptr %15, i32 0, i32 4
  %33 = load i32, ptr %12, align 4, !tbaa !22
  store i32 %33, ptr %32, align 4, !tbaa !26
  ret void
}

; Function Attrs: mustprogress nounwind uwtable
define linkonce_odr dso_local void @_ZN4Luau7CodeGen3X6410OperandX64C2Ei(ptr noundef nonnull align 4 dereferenceable(8) %0, i32 noundef %1) unnamed_addr #4 comdat align 2 {
  %3 = alloca ptr, align 8
  %4 = alloca i32, align 4
  store ptr %0, ptr %3, align 8, !tbaa !24
  store i32 %1, ptr %4, align 4, !tbaa !22
  %5 = load ptr, ptr %3, align 8
  %6 = getelementptr inbounds nuw %"struct.Luau::CodeGen::X64::OperandX64", ptr %5, i32 0, i32 0
  store i8 2, ptr %6, align 4, !tbaa !13
  %7 = getelementptr inbounds nuw %"struct.Luau::CodeGen::X64::OperandX64", ptr %5, i32 0, i32 1
  call void @llvm.memcpy.p0.p0.i64(ptr align 1 %7, ptr align 1 @_ZN4Luau7CodeGen3X64L5noregE, i64 1, i1 false), !tbaa.struct !23
  %8 = getelementptr inbounds nuw %"struct.Luau::CodeGen::X64::OperandX64", ptr %5, i32 0, i32 2
  call void @llvm.memcpy.p0.p0.i64(ptr align 2 %8, ptr align 1 @_ZN4Luau7CodeGen3X64L5noregE, i64 1, i1 false), !tbaa.struct !23
  %9 = getelementptr inbounds nuw %"struct.Luau::CodeGen::X64::OperandX64", ptr %5, i32 0, i32 3
  %10 = load i8, ptr %9, align 1
  %11 = and i8 %10, -16
  %12 = or i8 %11, 0
  store i8 %12, ptr %9, align 1
  %13 = getelementptr inbounds nuw %"struct.Luau::CodeGen::X64::OperandX64", ptr %5, i32 0, i32 3
  %14 = load i8, ptr %13, align 1
  %15 = and i8 %14, 15
  %16 = or i8 %15, 16
  store i8 %16, ptr %13, align 1
  %17 = getelementptr inbounds nuw %"struct.Luau::CodeGen::X64::OperandX64", ptr %5, i32 0, i32 4
  %18 = load i32, ptr %4, align 4, !tbaa !22
  store i32 %18, ptr %17, align 4, !tbaa !26
  ret void
}

; Function Attrs: mustprogress nounwind uwtable
define linkonce_odr dso_local i8 @_ZN4Luau7CodeGen3X647byteRegENS1_11RegisterX64E(i8 %0) #4 comdat {
  %2 = alloca %"struct.Luau::CodeGen::X64::RegisterX64", align 1
  %3 = alloca %"struct.Luau::CodeGen::X64::RegisterX64", align 1
  %4 = getelementptr inbounds nuw %"struct.Luau::CodeGen::X64::RegisterX64", ptr %3, i32 0, i32 0
  store i8 %0, ptr %4, align 1
  %5 = load i8, ptr %2, align 1
  %6 = and i8 %5, -8
  %7 = or i8 %6, 1
  store i8 %7, ptr %2, align 1
  %8 = load i8, ptr %3, align 1
  %9 = lshr i8 %8, 3
  %10 = load i8, ptr %2, align 1
  %11 = and i8 %9, 31
  %12 = shl i8 %11, 3
  %13 = and i8 %10, 7
  %14 = or i8 %13, %12
  store i8 %14, ptr %2, align 1
  %15 = getelementptr inbounds nuw %"struct.Luau::CodeGen::X64::RegisterX64", ptr %2, i32 0, i32 0
  %16 = load i8, ptr %15, align 1
  ret i8 %16
}

; Function Attrs: mustprogress nounwind uwtable
define linkonce_odr dso_local i64 @_ZN4Luau7CodeGen3X64plENS1_10OperandX64Ei(i64 %0, i32 noundef %1) #4 comdat {
  %3 = alloca %"struct.Luau::CodeGen::X64::OperandX64", align 4
  %4 = alloca %"struct.Luau::CodeGen::X64::OperandX64", align 4
  %5 = alloca i32, align 4
  store i64 %0, ptr %4, align 4
  store i32 %1, ptr %5, align 4, !tbaa !22
  %6 = load i32, ptr %5, align 4, !tbaa !22
  %7 = getelementptr inbounds nuw %"struct.Luau::CodeGen::X64::OperandX64", ptr %4, i32 0, i32 4
  %8 = load i32, ptr %7, align 4, !tbaa !26
  %9 = add nsw i32 %8, %6
  store i32 %9, ptr %7, align 4, !tbaa !26
  call void @llvm.memcpy.p0.p0.i64(ptr align 4 %3, ptr align 4 %4, i64 8, i1 false), !tbaa.struct !19
  %10 = load i64, ptr %3, align 4
  ret i64 %10
}

; Function Attrs: mustprogress nounwind uwtable
define linkonce_odr dso_local i8 @_ZN4Luau7CodeGen3X648dwordRegENS1_11RegisterX64E(i8 %0) #4 comdat {
  %2 = alloca %"struct.Luau::CodeGen::X64::RegisterX64", align 1
  %3 = alloca %"struct.Luau::CodeGen::X64::RegisterX64", align 1
  %4 = getelementptr inbounds nuw %"struct.Luau::CodeGen::X64::RegisterX64", ptr %3, i32 0, i32 0
  store i8 %0, ptr %4, align 1
  %5 = load i8, ptr %2, align 1
  %6 = and i8 %5, -8
  %7 = or i8 %6, 3
  store i8 %7, ptr %2, align 1
  %8 = load i8, ptr %3, align 1
  %9 = lshr i8 %8, 3
  %10 = load i8, ptr %2, align 1
  %11 = and i8 %9, 31
  %12 = shl i8 %11, 3
  %13 = and i8 %10, 7
  %14 = or i8 %13, %12
  store i8 %14, ptr %2, align 1
  %15 = getelementptr inbounds nuw %"struct.Luau::CodeGen::X64::RegisterX64", ptr %2, i32 0, i32 0
  %16 = load i8, ptr %15, align 1
  ret i8 %16
}

; Function Attrs: mustprogress nounwind uwtable
define linkonce_odr dso_local i64 @_ZNK4Luau7CodeGen3X6410OperandX64ixEOS2_(ptr noundef nonnull align 4 dereferenceable(8) %0, ptr noundef nonnull align 4 dereferenceable(8) %1) #4 comdat align 2 {
  %3 = alloca %"struct.Luau::CodeGen::X64::OperandX64", align 4
  %4 = alloca ptr, align 8
  %5 = alloca ptr, align 8
  store ptr %0, ptr %4, align 8, !tbaa !24
  store ptr %1, ptr %5, align 8, !tbaa !24
  %6 = load ptr, ptr %4, align 8
  %7 = load ptr, ptr %5, align 8, !tbaa !24
  %8 = getelementptr inbounds nuw %"struct.Luau::CodeGen::X64::OperandX64", ptr %7, i32 0, i32 0
  store i8 1, ptr %8, align 4, !tbaa !13
  %9 = getelementptr inbounds nuw %"struct.Luau::CodeGen::X64::OperandX64", ptr %6, i32 0, i32 3
  %10 = load i8, ptr %9, align 1
  %11 = and i8 %10, 15
  %12 = load ptr, ptr %5, align 8, !tbaa !24
  %13 = getelementptr inbounds nuw %"struct.Luau::CodeGen::X64::OperandX64", ptr %12, i32 0, i32 3
  %14 = load i8, ptr %13, align 1
  %15 = and i8 %11, 15
  %16 = and i8 %14, -16
  %17 = or i8 %16, %15
  store i8 %17, ptr %13, align 1
  %18 = load ptr, ptr %5, align 8, !tbaa !24
  call void @llvm.memcpy.p0.p0.i64(ptr align 4 %3, ptr align 4 %18, i64 8, i1 false), !tbaa.struct !19
  %19 = load i64, ptr %3, align 4
  ret i64 %19
}

; Function Attrs: mustprogress uwtable
define linkonce_odr dso_local i64 @_ZN4Luau7CodeGen3X64plENS1_11RegisterX64Ei(i8 %0, i32 noundef %1) #0 comdat {
  %3 = alloca %"struct.Luau::CodeGen::X64::OperandX64", align 4
  %4 = alloca %"struct.Luau::CodeGen::X64::RegisterX64", align 1
  %5 = alloca i32, align 4
  %6 = alloca %"struct.Luau::CodeGen::X64::RegisterX64", align 1
  %7 = alloca %"struct.Luau::CodeGen::X64::RegisterX64", align 1
  %8 = getelementptr inbounds nuw %"struct.Luau::CodeGen::X64::RegisterX64", ptr %4, i32 0, i32 0
  store i8 %0, ptr %8, align 1
  store i32 %1, ptr %5, align 4, !tbaa !22
  call void @llvm.memcpy.p0.p0.i64(ptr align 1 %6, ptr align 1 @_ZN4Luau7CodeGen3X64L5noregE, i64 1, i1 false), !tbaa.struct !23
  call void @llvm.memcpy.p0.p0.i64(ptr align 1 %7, ptr align 1 %4, i64 1, i1 false), !tbaa.struct !23
  %9 = load i32, ptr %5, align 4, !tbaa !22
  %10 = getelementptr inbounds nuw %"struct.Luau::CodeGen::X64::RegisterX64", ptr %6, i32 0, i32 0
  %11 = load i8, ptr %10, align 1
  %12 = getelementptr inbounds nuw %"struct.Luau::CodeGen::X64::RegisterX64", ptr %7, i32 0, i32 0
  %13 = load i8, ptr %12, align 1
  call void @_ZN4Luau7CodeGen3X6410OperandX64C2ENS1_7SizeX64ENS1_11RegisterX64EhS4_i(ptr noundef nonnull align 4 dereferenceable(8) %3, i8 noundef zeroext 0, i8 %11, i8 noundef zeroext 1, i8 %13, i32 noundef %9)
  %14 = load i64, ptr %3, align 4
  ret i64 %14
}

; Function Attrs: mustprogress nounwind uwtable
define linkonce_odr dso_local void @_ZN4Luau7CodeGen3X6410OperandX64C2ENS1_11RegisterX64E(ptr noundef nonnull align 4 dereferenceable(8) %0, i8 %1) unnamed_addr #4 comdat align 2 {
  %3 = alloca %"struct.Luau::CodeGen::X64::RegisterX64", align 1
  %4 = alloca ptr, align 8
  %5 = getelementptr inbounds nuw %"struct.Luau::CodeGen::X64::RegisterX64", ptr %3, i32 0, i32 0
  store i8 %1, ptr %5, align 1
  store ptr %0, ptr %4, align 8, !tbaa !24
  %6 = load ptr, ptr %4, align 8
  %7 = getelementptr inbounds nuw %"struct.Luau::CodeGen::X64::OperandX64", ptr %6, i32 0, i32 0
  store i8 0, ptr %7, align 4, !tbaa !13
  %8 = getelementptr inbounds nuw %"struct.Luau::CodeGen::X64::OperandX64", ptr %6, i32 0, i32 1
  call void @llvm.memcpy.p0.p0.i64(ptr align 1 %8, ptr align 1 @_ZN4Luau7CodeGen3X64L5noregE, i64 1, i1 false), !tbaa.struct !23
  %9 = getelementptr inbounds nuw %"struct.Luau::CodeGen::X64::OperandX64", ptr %6, i32 0, i32 2
  call void @llvm.memcpy.p0.p0.i64(ptr align 2 %9, ptr align 1 %3, i64 1, i1 false), !tbaa.struct !23
  %10 = getelementptr inbounds nuw %"struct.Luau::CodeGen::X64::OperandX64", ptr %6, i32 0, i32 3
  %11 = load i8, ptr %10, align 1
  %12 = and i8 %11, -16
  %13 = or i8 %12, 0
  store i8 %13, ptr %10, align 1
  %14 = getelementptr inbounds nuw %"struct.Luau::CodeGen::X64::OperandX64", ptr %6, i32 0, i32 3
  %15 = load i8, ptr %14, align 1
  %16 = and i8 %15, 15
  %17 = or i8 %16, 16
  store i8 %17, ptr %14, align 1
  %18 = getelementptr inbounds nuw %"struct.Luau::CodeGen::X64::OperandX64", ptr %6, i32 0, i32 4
  store i32 0, ptr %18, align 4, !tbaa !26
  ret void
}

; Function Attrs: mustprogress uwtable
define dso_local void @_ZN4Luau7CodeGen3X6424getTableNodeAtCachedSlotERNS1_18AssemblyBuilderX64ENS1_11RegisterX64ES4_S4_i(ptr noundef nonnull align 8 dereferenceable(252) %0, i8 %1, i8 %2, i8 %3, i32 noundef %4) #0 {
  %6 = alloca %"struct.Luau::CodeGen::X64::RegisterX64", align 1
  %7 = alloca %"struct.Luau::CodeGen::X64::RegisterX64", align 1
  %8 = alloca %"struct.Luau::CodeGen::X64::RegisterX64", align 1
  %9 = alloca ptr, align 8
  %10 = alloca i32, align 4
  %11 = alloca %"struct.Luau::CodeGen::X64::OperandX64", align 4
  %12 = alloca %"struct.Luau::CodeGen::X64::RegisterX64", align 1
  %13 = alloca %"struct.Luau::CodeGen::X64::OperandX64", align 4
  %14 = alloca %"struct.Luau::CodeGen::X64::OperandX64", align 4
  %15 = alloca %"struct.Luau::CodeGen::X64::RegisterX64", align 1
  %16 = alloca %"struct.Luau::CodeGen::X64::OperandX64", align 4
  %17 = alloca %"struct.Luau::CodeGen::X64::RegisterX64", align 1
  %18 = alloca %"struct.Luau::CodeGen::X64::OperandX64", align 4
  %19 = alloca %"struct.Luau::CodeGen::X64::RegisterX64", align 1
  %20 = alloca %"struct.Luau::CodeGen::X64::RegisterX64", align 1
  %21 = alloca %"struct.Luau::CodeGen::X64::OperandX64", align 4
  %22 = alloca %"struct.Luau::CodeGen::X64::OperandX64", align 4
  %23 = alloca %"struct.Luau::CodeGen::X64::OperandX64", align 4
  %24 = alloca %"struct.Luau::CodeGen::X64::RegisterX64", align 1
  %25 = alloca %"struct.Luau::CodeGen::X64::OperandX64", align 4
  %26 = alloca %"struct.Luau::CodeGen::X64::RegisterX64", align 1
  %27 = alloca %"struct.Luau::CodeGen::X64::RegisterX64", align 1
  %28 = alloca %"struct.Luau::CodeGen::X64::OperandX64", align 4
  %29 = alloca %"struct.Luau::CodeGen::X64::OperandX64", align 4
  %30 = alloca %"struct.Luau::CodeGen::X64::RegisterX64", align 1
  %31 = alloca %"struct.Luau::CodeGen::X64::OperandX64", align 4
  %32 = alloca %"struct.Luau::CodeGen::X64::RegisterX64", align 1
  %33 = alloca %"struct.Luau::CodeGen::X64::RegisterX64", align 1
  %34 = alloca %"struct.Luau::CodeGen::X64::OperandX64", align 4
  %35 = alloca %"struct.Luau::CodeGen::X64::OperandX64", align 4
  %36 = alloca %"struct.Luau::CodeGen::X64::RegisterX64", align 1
  %37 = alloca %"struct.Luau::CodeGen::X64::OperandX64", align 4
  %38 = alloca %"struct.Luau::CodeGen::X64::RegisterX64", align 1
  %39 = getelementptr inbounds nuw %"struct.Luau::CodeGen::X64::RegisterX64", ptr %6, i32 0, i32 0
  store i8 %1, ptr %39, align 1
  %40 = getelementptr inbounds nuw %"struct.Luau::CodeGen::X64::RegisterX64", ptr %7, i32 0, i32 0
  store i8 %2, ptr %40, align 1
  %41 = getelementptr inbounds nuw %"struct.Luau::CodeGen::X64::RegisterX64", ptr %8, i32 0, i32 0
  store i8 %3, ptr %41, align 1
  store ptr %0, ptr %9, align 8, !tbaa !4
  store i32 %4, ptr %10, align 4, !tbaa !22
  %42 = load ptr, ptr %9, align 8, !tbaa !4
  call void @llvm.memcpy.p0.p0.i64(ptr align 1 %12, ptr align 1 %7, i64 1, i1 false), !tbaa.struct !23
  %43 = getelementptr inbounds nuw %"struct.Luau::CodeGen::X64::RegisterX64", ptr %12, i32 0, i32 0
  %44 = load i8, ptr %43, align 1
  call void @_ZN4Luau7CodeGen3X6410OperandX64C2ENS1_11RegisterX64E(ptr noundef nonnull align 4 dereferenceable(8) %11, i8 %44)
  call void @llvm.lifetime.start.p0(i64 8, ptr %14) #8
  call void @llvm.memcpy.p0.p0.i64(ptr align 1 %15, ptr align 1 %8, i64 1, i1 false), !tbaa.struct !23
  %45 = getelementptr inbounds nuw %"struct.Luau::CodeGen::X64::RegisterX64", ptr %15, i32 0, i32 0
  %46 = load i8, ptr %45, align 1
  %47 = call i64 @_ZN4Luau7CodeGen3X64plENS1_11RegisterX64Ei(i8 %46, i32 noundef 32)
  store i64 %47, ptr %14, align 4
  %48 = call i64 @_ZNK4Luau7CodeGen3X6410OperandX64ixEOS2_(ptr noundef nonnull align 4 dereferenceable(8) @_ZN4Luau7CodeGen3X64L5qwordE, ptr noundef nonnull align 4 dereferenceable(8) %14)
  store i64 %48, ptr %13, align 4
  %49 = load i64, ptr %11, align 4
  %50 = load i64, ptr %13, align 4
  call void @_ZN4Luau7CodeGen3X6418AssemblyBuilderX643movENS1_10OperandX64ES3_(ptr noundef nonnull align 8 dereferenceable(252) %42, i64 %49, i64 %50)
  call void @llvm.lifetime.end.p0(i64 8, ptr %14) #8
  %51 = load ptr, ptr %9, align 8, !tbaa !4
  call void @llvm.memcpy.p0.p0.i64(ptr align 1 %17, ptr align 1 %6, i64 1, i1 false), !tbaa.struct !23
  %52 = getelementptr inbounds nuw %"struct.Luau::CodeGen::X64::RegisterX64", ptr %17, i32 0, i32 0
  %53 = load i8, ptr %52, align 1
  call void @_ZN4Luau7CodeGen3X6410OperandX64C2ENS1_11RegisterX64E(ptr noundef nonnull align 4 dereferenceable(8) %16, i8 %53)
  call void @llvm.memcpy.p0.p0.i64(ptr align 4 %18, ptr align 4 @_ZN4Luau7CodeGen3X64L5sCodeE, i64 8, i1 false), !tbaa.struct !19
  %54 = load i64, ptr %16, align 4
  %55 = load i64, ptr %18, align 4
  call void @_ZN4Luau7CodeGen3X6418AssemblyBuilderX643movENS1_10OperandX64ES3_(ptr noundef nonnull align 8 dereferenceable(252) %51, i64 %54, i64 %55)
  %56 = load ptr, ptr %9, align 8, !tbaa !4
  call void @llvm.memcpy.p0.p0.i64(ptr align 1 %20, ptr align 1 %6, i64 1, i1 false), !tbaa.struct !23
  %57 = getelementptr inbounds nuw %"struct.Luau::CodeGen::X64::RegisterX64", ptr %20, i32 0, i32 0
  %58 = load i8, ptr %57, align 1
  %59 = call i8 @_ZN4Luau7CodeGen3X648dwordRegENS1_11RegisterX64E(i8 %58)
  %60 = getelementptr inbounds nuw %"struct.Luau::CodeGen::X64::RegisterX64", ptr %19, i32 0, i32 0
  store i8 %59, ptr %60, align 1
  call void @llvm.lifetime.start.p0(i64 8, ptr %22) #8
  call void @llvm.memcpy.p0.p0.i64(ptr align 1 %24, ptr align 1 %6, i64 1, i1 false), !tbaa.struct !23
  %61 = load i32, ptr %10, align 4, !tbaa !22
  %62 = sext i32 %61 to i64
  %63 = mul i64 %62, 4
  %64 = trunc i64 %63 to i32
  %65 = getelementptr inbounds nuw %"struct.Luau::CodeGen::X64::RegisterX64", ptr %24, i32 0, i32 0
  %66 = load i8, ptr %65, align 1
  %67 = call i64 @_ZN4Luau7CodeGen3X64plENS1_11RegisterX64Ei(i8 %66, i32 noundef %64)
  store i64 %67, ptr %23, align 4
  %68 = load i64, ptr %23, align 4
  %69 = call i64 @_ZN4Luau7CodeGen3X64plENS1_10OperandX64Ei(i64 %68, i32 noundef 3)
  store i64 %69, ptr %22, align 4
  %70 = call i64 @_ZNK4Luau7CodeGen3X6410OperandX64ixEOS2_(ptr noundef nonnull align 4 dereferenceable(8) @_ZN4Luau7CodeGen3X64L4byteE, ptr noundef nonnull align 4 dereferenceable(8) %22)
  store i64 %70, ptr %21, align 4
  %71 = getelementptr inbounds nuw %"struct.Luau::CodeGen::X64::RegisterX64", ptr %19, i32 0, i32 0
  %72 = load i8, ptr %71, align 1
  %73 = load i64, ptr %21, align 4
  call void @_ZN4Luau7CodeGen3X6418AssemblyBuilderX645movzxENS1_11RegisterX64ENS1_10OperandX64E(ptr noundef nonnull align 8 dereferenceable(252) %56, i8 %72, i64 %73)
  call void @llvm.lifetime.end.p0(i64 8, ptr %22) #8
  %74 = load ptr, ptr %9, align 8, !tbaa !4
  call void @llvm.memcpy.p0.p0.i64(ptr align 1 %27, ptr align 1 %6, i64 1, i1 false), !tbaa.struct !23
  %75 = getelementptr inbounds nuw %"struct.Luau::CodeGen::X64::RegisterX64", ptr %27, i32 0, i32 0
  %76 = load i8, ptr %75, align 1
  %77 = call i8 @_ZN4Luau7CodeGen3X647byteRegENS1_11RegisterX64E(i8 %76)
  %78 = getelementptr inbounds nuw %"struct.Luau::CodeGen::X64::RegisterX64", ptr %26, i32 0, i32 0
  store i8 %77, ptr %78, align 1
  %79 = getelementptr inbounds nuw %"struct.Luau::CodeGen::X64::RegisterX64", ptr %26, i32 0, i32 0
  %80 = load i8, ptr %79, align 1
  call void @_ZN4Luau7CodeGen3X6410OperandX64C2ENS1_11RegisterX64E(ptr noundef nonnull align 4 dereferenceable(8) %25, i8 %80)
  call void @llvm.lifetime.start.p0(i64 8, ptr %29) #8
  call void @llvm.memcpy.p0.p0.i64(ptr align 1 %30, ptr align 1 %8, i64 1, i1 false), !tbaa.struct !23
  %81 = getelementptr inbounds nuw %"struct.Luau::CodeGen::X64::RegisterX64", ptr %30, i32 0, i32 0
  %82 = load i8, ptr %81, align 1
  %83 = call i64 @_ZN4Luau7CodeGen3X64plENS1_11RegisterX64Ei(i8 %82, i32 noundef 7)
  store i64 %83, ptr %29, align 4
  %84 = call i64 @_ZNK4Luau7CodeGen3X6410OperandX64ixEOS2_(ptr noundef nonnull align 4 dereferenceable(8) @_ZN4Luau7CodeGen3X64L4byteE, ptr noundef nonnull align 4 dereferenceable(8) %29)
  store i64 %84, ptr %28, align 4
  %85 = load i64, ptr %25, align 4
  %86 = load i64, ptr %28, align 4
  call void @_ZN4Luau7CodeGen3X6418AssemblyBuilderX644and_ENS1_10OperandX64ES3_(ptr noundef nonnull align 8 dereferenceable(252) %74, i64 %85, i64 %86)
  call void @llvm.lifetime.end.p0(i64 8, ptr %29) #8
  %87 = load ptr, ptr %9, align 8, !tbaa !4
  call void @llvm.memcpy.p0.p0.i64(ptr align 1 %33, ptr align 1 %6, i64 1, i1 false), !tbaa.struct !23
  %88 = getelementptr inbounds nuw %"struct.Luau::CodeGen::X64::RegisterX64", ptr %33, i32 0, i32 0
  %89 = load i8, ptr %88, align 1
  %90 = call i8 @_ZN4Luau7CodeGen3X648dwordRegENS1_11RegisterX64E(i8 %89)
  %91 = getelementptr inbounds nuw %"struct.Luau::CodeGen::X64::RegisterX64", ptr %32, i32 0, i32 0
  store i8 %90, ptr %91, align 1
  %92 = getelementptr inbounds nuw %"struct.Luau::CodeGen::X64::RegisterX64", ptr %32, i32 0, i32 0
  %93 = load i8, ptr %92, align 1
  call void @_ZN4Luau7CodeGen3X6410OperandX64C2ENS1_11RegisterX64E(ptr noundef nonnull align 4 dereferenceable(8) %31, i8 %93)
  call void @_ZN4Luau7CodeGen3X6410OperandX64C2Ei(ptr noundef nonnull align 4 dereferenceable(8) %34, i32 noundef 5)
  %94 = load i64, ptr %31, align 4
  %95 = load i64, ptr %34, align 4
  call void @_ZN4Luau7CodeGen3X6418AssemblyBuilderX643shlENS1_10OperandX64ES3_(ptr noundef nonnull align 8 dereferenceable(252) %87, i64 %94, i64 %95)
  %96 = load ptr, ptr %9, align 8, !tbaa !4
  call void @llvm.memcpy.p0.p0.i64(ptr align 1 %36, ptr align 1 %7, i64 1, i1 false), !tbaa.struct !23
  %97 = getelementptr inbounds nuw %"struct.Luau::CodeGen::X64::RegisterX64", ptr %36, i32 0, i32 0
  %98 = load i8, ptr %97, align 1
  call void @_ZN4Luau7CodeGen3X6410OperandX64C2ENS1_11RegisterX64E(ptr noundef nonnull align 4 dereferenceable(8) %35, i8 %98)
  call void @llvm.memcpy.p0.p0.i64(ptr align 1 %38, ptr align 1 %6, i64 1, i1 false), !tbaa.struct !23
  %99 = getelementptr inbounds nuw %"struct.Luau::CodeGen::X64::RegisterX64", ptr %38, i32 0, i32 0
  %100 = load i8, ptr %99, align 1
  call void @_ZN4Luau7CodeGen3X6410OperandX64C2ENS1_11RegisterX64E(ptr noundef nonnull align 4 dereferenceable(8) %37, i8 %100)
  %101 = load i64, ptr %35, align 4
  %102 = load i64, ptr %37, align 4
  call void @_ZN4Luau7CodeGen3X6418AssemblyBuilderX643addENS1_10OperandX64ES3_(ptr noundef nonnull align 8 dereferenceable(252) %96, i64 %101, i64 %102)
  ret void
}