; Function Attrs: mustprogress uwtable
define dso_local void @_ZN4Luau7CodeGen3X6424getTableNodeAtCachedSlotERNS1_18AssemblyBuilderX64ENS1_11RegisterX64ES4_S4_i(ptr noundef nonnull align 8 dereferenceable(252) %0, i8 %1, i8 %2, i8 %3, i32 noundef %4) local_unnamed_addr #0 {
  %.sroa.3.0.insert.ext.i = zext i8 %3 to i64
  %.sroa.3.0.insert.shift.i = shl nuw nsw i64 %.sroa.3.0.insert.ext.i, 16
  %.sroa.076.0.insert.insert = or disjoint i64 %.sroa.3.0.insert.shift.i, 137774530561
  %.sroa.382.0.insert.ext = zext i8 %2 to i64
  %.sroa.382.0.insert.shift = shl nuw nsw i64 %.sroa.382.0.insert.ext, 16
  %.sroa.281.0.insert.insert = or disjoint i64 %.sroa.382.0.insert.shift, 268468224
  tail call void @_ZN4Luau7CodeGen3X6418AssemblyBuilderX643movENS1_10OperandX64ES3_(ptr noundef nonnull align 8 dereferenceable(252) %0, i64 %.sroa.281.0.insert.insert, i64 %.sroa.076.0.insert.insert)
  %.sroa.373.0.insert.ext = zext i8 %1 to i64
  %.sroa.373.0.insert.shift = shl nuw nsw i64 %.sroa.373.0.insert.ext, 16
  %.sroa.272.0.insert.insert = or disjoint i64 %.sroa.373.0.insert.shift, 268468224
  tail call void @_ZN4Luau7CodeGen3X6418AssemblyBuilderX643movENS1_10OperandX64ES3_(ptr noundef nonnull align 8 dereferenceable(252) %0, i64 %.sroa.272.0.insert.insert, i64 240856104961)
  %6 = and i8 %1, -8
  %7 = or disjoint i8 %6, 3
  %8 = shl i32 %4, 2
  %9 = or disjoint i32 %8, 3
  %.sroa.21.0.insert.ext.i = zext i32 %9 to i64
  %.sroa.21.0.insert.shift.i = shl nuw i64 %.sroa.21.0.insert.ext.i, 32
  %.sroa.568.0.extract.trunc = or disjoint i64 %.sroa.21.0.insert.shift.i, %.sroa.373.0.insert.shift
  %.sroa.067.0.insert.insert = or disjoint i64 %.sroa.568.0.extract.trunc, 285245441
  tail call void @_ZN4Luau7CodeGen3X6418AssemblyBuilderX645movzxENS1_11RegisterX64ENS1_10OperandX64E(ptr noundef nonnull align 8 dereferenceable(252) %0, i8 %7, i64 %.sroa.067.0.insert.insert)
  %10 = or disjoint i8 %6, 1
  %.sroa.059.0.insert.insert = or disjoint i64 %.sroa.3.0.insert.shift.i, 30350016513
  %.sroa.364.0.insert.ext = zext i8 %10 to i64
  %.sroa.364.0.insert.shift = shl nuw nsw i64 %.sroa.364.0.insert.ext, 16
  %.sroa.263.0.insert.insert = or disjoint i64 %.sroa.364.0.insert.shift, 268468224
  tail call void @_ZN4Luau7CodeGen3X6418AssemblyBuilderX644and_ENS1_10OperandX64ES3_(ptr noundef nonnull align 8 dereferenceable(252) %0, i64 %.sroa.263.0.insert.insert, i64 %.sroa.059.0.insert.insert)
  %.sroa.356.0.insert.ext = zext i8 %7 to i64
  %.sroa.356.0.insert.shift = shl nuw nsw i64 %.sroa.356.0.insert.ext, 16
  %.sroa.255.0.insert.insert = or disjoint i64 %.sroa.356.0.insert.shift, 268468224
  tail call void @_ZN4Luau7CodeGen3X6418AssemblyBuilderX643shlENS1_10OperandX64ES3_(ptr noundef nonnull align 8 dereferenceable(252) %0, i64 %.sroa.255.0.insert.insert, i64 21751693314)
  tail call void @_ZN4Luau7CodeGen3X6418AssemblyBuilderX643addENS1_10OperandX64ES3_(ptr noundef nonnull align 8 dereferenceable(252) %0, i64 %.sroa.281.0.insert.insert, i64 %.sroa.272.0.insert.insert)
  ret void
}